; Function Attrs: mustprogress nounwind willreturn memory(readwrite, argmem: none) uwtable
define noalias noundef ptr @ARKodeSPRKTable_Alloc(i32 noundef %0) local_unnamed_addr #2 {
  %calloc = tail call dereferenceable_or_null(24) ptr @calloc(i64 1, i64 24)
  %.not = icmp eq ptr %calloc, null
  br i1 %.not, label %12, label %2

2:                                                ; preds = %1
  %3 = sext i32 %0 to i64
  %4 = shl nsw i64 %3, 3
  %5 = tail call noalias ptr @malloc(i64 noundef %4) #13
  %6 = getelementptr inbounds nuw i8, ptr %calloc, i64 16
  store ptr %5, ptr %6, align 8, !tbaa !3
  %.not14 = icmp eq ptr %5, null
  br i1 %.not14, label %ARKodeSPRKTable_Free.exit, label %7

ARKodeSPRKTable_Free.exit:                        ; preds = %2
  tail call void @free(ptr noundef nonnull %calloc) #14
  br label %12

7:                                                ; preds = %2
  %8 = tail call noalias ptr @malloc(i64 noundef %4) #13
  %9 = getelementptr inbounds nuw i8, ptr %calloc, i64 8
  store ptr %8, ptr %9, align 8, !tbaa !10
  %.not15 = icmp eq ptr %8, null
  br i1 %.not15, label %ARKodeSPRKTable_Free.exit19, label %10

ARKodeSPRKTable_Free.exit19:                      ; preds = %7
  tail call void @free(ptr noundef nonnull %5) #14
  tail call void @free(ptr noundef nonnull %calloc) #14
  br label %12

10:                                               ; preds = %7
  %11 = getelementptr inbounds nuw i8, ptr %calloc, i64 4
  store i32 %0, ptr %11, align 4, !tbaa !11
  br label %12

12:                                               ; preds = %1, %10, %ARKodeSPRKTable_Free.exit19, %ARKodeSPRKTable_Free.exit
  %.0 = phi ptr [ %calloc, %10 ], [ null, %ARKodeSPRKTable_Free.exit19 ], [ null, %ARKodeSPRKTable_Free.exit ], [ null, %1 ]
  ret ptr %.0
}